target datalayout = "e-m:e-p270:32:32-p271:32:32-p272:64:64-i64:64-i128:128-f80:128-n8:16:32:64-S128"
target triple = "x86_64-pc-linux-gnu"

%struct.tdefl_output_buffer = type { i64, i64, ptr, i32 }

; Function Attrs: mustprogress nounwind uwtable
define internal noundef i32 @_ZL26tdefl_output_buffer_putterPKviPv(ptr noundef %0, i32 noundef %1, ptr noundef %2) #4 {
  %4 = alloca i32, align 4
  %5 = alloca ptr, align 8
  %6 = alloca i32, align 4
  %7 = alloca ptr, align 8
  %8 = alloca ptr, align 8
  %9 = alloca i64, align 8
  %10 = alloca i64, align 8
  %11 = alloca ptr, align 8
  store ptr %0, ptr %5, align 8
  store i32 %1, ptr %6, align 4
  store ptr %2, ptr %7, align 8
  %12 = load ptr, ptr %7, align 8
  store ptr %12, ptr %8, align 8
  %13 = load ptr, ptr %8, align 8
  %14 = getelementptr inbounds %struct.tdefl_output_buffer, ptr %13, i32 0, i32 0
  %15 = load i64, ptr %14, align 8
  %16 = load i32, ptr %6, align 4
  %17 = sext i32 %16 to i64
  %18 = add i64 %15, %17
  store i64 %18, ptr %9, align 8
  %19 = load i64, ptr %9, align 8
  %20 = load ptr, ptr %8, align 8
  %21 = getelementptr inbounds %struct.tdefl_output_buffer, ptr %20, i32 0, i32 1
  %22 = load i64, ptr %21, align 8
  %23 = icmp ugt i64 %19, %22
  br i1 %23, label %24, label %64

24:                                               ; preds = %3
  %25 = load ptr, ptr %8, align 8
  %26 = getelementptr inbounds %struct.tdefl_output_buffer, ptr %25, i32 0, i32 1
  %27 = load i64, ptr %26, align 8
  store i64 %27, ptr %10, align 8
  %28 = load ptr, ptr %8, align 8
  %29 = getelementptr inbounds %struct.tdefl_output_buffer, ptr %28, i32 0, i32 3
  %30 = load i32, ptr %29, align 8
  %31 = icmp ne i32 %30, 0
  br i1 %31, label %33, label %32

32:                                               ; preds = %24
  store i32 0, ptr %4, align 4
  br label %78

33:                                               ; preds = %24
  br label %34

34:                                               ; preds = %44, %33
  %35 = load i64, ptr %10, align 8
  %36 = shl i64 %35, 1
  %37 = icmp ugt i64 128, %36
  br i1 %37, label %38, label %39

38:                                               ; preds = %34
  br label %42

39:                                               ; preds = %34
  %40 = load i64, ptr %10, align 8
  %41 = shl i64 %40, 1
  br label %42

42:                                               ; preds = %39, %38
  %43 = phi i64 [ 128, %38 ], [ %41, %39 ]
  store i64 %43, ptr %10, align 8
  br label %44

44:                                               ; preds = %42
  %45 = load i64, ptr %9, align 8
  %46 = load i64, ptr %10, align 8
  %47 = icmp ugt i64 %45, %46
  br i1 %47, label %34, label %48, !llvm.loop !180

48:                                               ; preds = %44
  %49 = load ptr, ptr %8, align 8
  %50 = getelementptr inbounds %struct.tdefl_output_buffer, ptr %49, i32 0, i32 2
  %51 = load ptr, ptr %50, align 8
  %52 = load i64, ptr %10, align 8
  %53 = call ptr @realloc(ptr noundef %51, i64 noundef %52) #25
  store ptr %53, ptr %11, align 8
  %54 = load ptr, ptr %11, align 8
  %55 = icmp ne ptr %54, null
  br i1 %55, label %57, label %56

56:                                               ; preds = %48
  store i32 0, ptr %4, align 4
  br label %78

57:                                               ; preds = %48
  %58 = load ptr, ptr %11, align 8
  %59 = load ptr, ptr %8, align 8
  %60 = getelementptr inbounds %struct.tdefl_output_buffer, ptr %59, i32 0, i32 2
  store ptr %58, ptr %60, align 8
  %61 = load i64, ptr %10, align 8
  %62 = load ptr, ptr %8, align 8
  %63 = getelementptr inbounds %struct.tdefl_output_buffer, ptr %62, i32 0, i32 1
  store i64 %61, ptr %63, align 8
  br label %64

64:                                               ; preds = %57, %3
  %65 = load ptr, ptr %8, align 8
  %66 = getelementptr inbounds %struct.tdefl_output_buffer, ptr %65, i32 0, i32 2
  %67 = load ptr, ptr %66, align 8
  %68 = load ptr, ptr %8, align 8
  %69 = getelementptr inbounds %struct.tdefl_output_buffer, ptr %68, i32 0, i32 0
  %70 = load i64, ptr %69, align 8
  %71 = getelementptr inbounds i8, ptr %67, i64 %70
  %72 = load ptr, ptr %5, align 8
  %73 = load i32, ptr %6, align 4
  %74 = sext i32 %73 to i64
  call void @llvm.memcpy.p0.p0.i64(ptr align 1 %71, ptr align 1 %72, i64 %74, i1 false)
  %75 = load i64, ptr %9, align 8
  %76 = load ptr, ptr %8, align 8
  %77 = getelementptr inbounds %struct.tdefl_output_buffer, ptr %76, i32 0, i32 0
  store i64 %75, ptr %77, align 8
  store i32 1, ptr %4, align 4
  br label %78

78:                                               ; preds = %64, %56, %32
  %79 = load i32, ptr %4, align 4
  ret i32 %79
}