; Function Attrs: mustprogress nounwind uwtable
define internal noundef i32 @_ZL26tdefl_output_buffer_putterPKviPv(ptr nocapture noundef readonly %0, i32 noundef %1, ptr nocapture noundef %2) #4 {
  %4 = load i64, ptr %2, align 8
  %5 = sext i32 %1 to i64
  %6 = add i64 %4, %5
  %7 = getelementptr inbounds i8, ptr %2, i64 8
  %8 = load i64, ptr %7, align 8
  %9 = icmp ugt i64 %6, %8
  br i1 %9, label %10, label %._crit_edge

._crit_edge:                                      ; preds = %3
  %.phi.trans.insert = getelementptr inbounds i8, ptr %2, i64 16
  %.pre = load ptr, ptr %.phi.trans.insert, align 8
  br label %21

10:                                               ; preds = %3
  %11 = getelementptr inbounds i8, ptr %2, i64 24
  %12 = load i32, ptr %11, align 8
  %.not = icmp eq i32 %12, 0
  br i1 %.not, label %25, label %.preheader

.preheader:                                       ; preds = %10, %.preheader
  %.024 = phi i64 [ %14, %.preheader ], [ %8, %10 ]
  %13 = shl i64 %.024, 1
  %14 = tail call i64 @llvm.umax.i64(i64 %13, i64 128)
  %15 = icmp ugt i64 %6, %14
  br i1 %15, label %.preheader, label %16, !llvm.loop !179

16:                                               ; preds = %.preheader
  %17 = getelementptr inbounds i8, ptr %2, i64 16
  %18 = load ptr, ptr %17, align 8
  %19 = tail call ptr @realloc(ptr noundef %18, i64 noundef %14) #47
  %.not29 = icmp eq ptr %19, null
  br i1 %.not29, label %25, label %20

20:                                               ; preds = %16
  store ptr %19, ptr %17, align 8
  store i64 %14, ptr %7, align 8
  %.pre30 = load i64, ptr %2, align 8
  br label %21

21:                                               ; preds = %._crit_edge, %20
  %22 = phi i64 [ %4, %._crit_edge ], [ %.pre30, %20 ]
  %23 = phi ptr [ %.pre, %._crit_edge ], [ %19, %20 ]
  %24 = getelementptr inbounds i8, ptr %23, i64 %22
  tail call void @llvm.memcpy.p0.p0.i64(ptr align 1 %24, ptr align 1 %0, i64 %5, i1 false)
  store i64 %6, ptr %2, align 8
  br label %25

25:                                               ; preds = %16, %10, %21
  %.0 = phi i32 [ 1, %21 ], [ 0, %10 ], [ 0, %16 ]
  ret i32 %.0
}